

Microchip Technology PIC18 LITE Macro Assembler V1.35 build -356382666 
                                                                                               Thu Mar 31 01:05:17 2016

Microchip Technology Omniscient Code Generator v1.35 (Free mode) build 201507080246
     1                           	processor	18F2455
     2                           	fnconf	rparam,??,?,0
     3                           	opt	pw 120
     4                           	opt	lm
     5                           	psect	idataBANK0,global,class=CODE,delta=1
     6                           	psect	cinit,global,reloc=2,class=CODE,delta=1
     7                           	psect	dataBANK0,global,class=BANK0,space=1,delta=1
     8                           	psect	cstackCOMRAM,global,class=COMRAM,space=1,delta=1
     9                           	psect	text0,global,reloc=2,class=CODE,delta=1
    10                           	psect	text1,global,reloc=2,class=CODE,delta=1
    11                           	psect	text2,global,reloc=2,class=CODE,delta=1
    12                           	psect	intsave_regs,global,class=BIGRAM,space=1,delta=1
    13                           	psect	rparam,global,class=COMRAM,space=1,delta=1
    14  0000                     
    15                           	psect	idataBANK0
    16  005B4E                     __pidataBANK0:
    17                           	opt stack 0
    18                           
    19                           ;initializer for main@F3971
    20  005B4E  001F               	dw	31
    21  005B50  0000               	dw	0
    22  005B52  1F00               	dw	7936
    23  005B54  0000               	dw	0
    24  005B56  0000               	dw	0
    25  005B58  001F               	dw	31
    26  005B5A  001F               	dw	31
    27  005B5C  0000               	dw	0
    28  005B5E  001F               	dw	31
    29  005B60  0000               	dw	0
    30  005B62  001F               	dw	31
    31  005B64  0000               	dw	0
    32  005B66  001F               	dw	31
    33  005B68  0000               	dw	0
    34  005B6A  001F               	dw	31
    35  005B6C  0000               	dw	0
    36  005B6E  001F               	dw	31
    37  005B70  0000               	dw	0
    38  005B72  001F               	dw	31
    39  005B74  0000               	dw	0
    40  005B76  001F               	dw	31
    41  005B78  0000               	dw	0
    42  005B7A  001F               	dw	31
    43  005B7C  0000               	dw	0
    44  0000                     _ADCON1	set	4033
    45  0000                     _PORTA	set	3968
    46  0000                     _PORTAbits	set	3968
    47  0000                     _PORTB	set	3969
    48  0000                     _PORTC	set	3970
    49  0000                     _T1CONbits	set	4045
    50  0000                     _TRISA	set	3986
    51  0000                     _TRISB	set	3987
    52  0000                     _TRISC	set	3988
    53                           
    54                           ; #config settings
    55  0000                     
    56                           	psect	cinit
    57  005B28                     __pcinit:
    58                           	opt stack 0
    59  005B28                     start_initialization:
    60                           	opt stack 0
    61  005B28                     __initialization:
    62                           	opt stack 0
    63                           
    64                           ; Initialize objects allocated to BANK0 (48 bytes)
    65                           ; load TBLPTR registers with __pidataBANK0
    66  005B28  0E4E               	movlw	low __pidataBANK0
    67  005B2A  6EF6               	movwf	tblptrl,c
    68  005B2C  0E5B               	movlw	high __pidataBANK0
    69  005B2E  6EF7               	movwf	tblptrh,c
    70  005B30  0E00               	movlw	low (__pidataBANK0 shr (0+16))
    71  005B32  6EF8               	movwf	tblptru,c
    72  005B34  EE00  F060         	lfsr	0,__pdataBANK0
    73  005B38  EE10 F030          	lfsr	1,48
    74  005B3C                     copy_data0:
    75  005B3C  0009               	tblrd		*+
    76  005B3E  CFF5 FFEE          	movff	tablat,postinc0
    77  005B42  50E5               	movf	postdec1,w,c
    78  005B44  50E1               	movf	fsr1l,w,c
    79  005B46  E1FA               	bnz	copy_data0
    80  005B48                     end_of_initialization:
    81                           	opt stack 0
    82  005B48                     __end_of__initialization:
    83                           	opt stack 0
    84  005B48  0100               	movlb	0
    85  005B4A  EFBF  F02D         	goto	_main	;jump to C main() function
    86                           tblptru	equ	0xFF8
    87                           tblptrh	equ	0xFF7
    88                           tblptrl	equ	0xFF6
    89                           tablat	equ	0xFF5
    90                           postinc0	equ	0xFEE
    91                           postdec1	equ	0xFE5
    92                           fsr1l	equ	0xFE1
    93                           
    94                           	psect	dataBANK0
    95  000060                     __pdataBANK0:
    96                           	opt stack 0
    97  000060                     main@F3971:
    98                           	opt stack 0
    99  000060                     	ds	48
   100                           tblptru	equ	0xFF8
   101                           tblptrh	equ	0xFF7
   102                           tblptrl	equ	0xFF6
   103                           tablat	equ	0xFF5
   104                           postinc0	equ	0xFEE
   105                           postdec1	equ	0xFE5
   106                           fsr1l	equ	0xFE1
   107                           
   108                           	psect	cstackCOMRAM
   109  000001                     __pcstackCOMRAM:
   110                           	opt stack 0
   111  000001                     ??_main:
   112                           
   113                           ; 0 bytes @ 0x0
   114  000001                     	ds	6
   115  000007                     main@ledColour:
   116                           	opt stack 0
   117                           
   118                           ; 48 bytes @ 0x6
   119  000007                     	ds	48
   120  000037                     main@i_186:
   121                           	opt stack 0
   122                           
   123                           ; 2 bytes @ 0x36
   124  000037                     	ds	2
   125  000039                     main@i:
   126                           	opt stack 0
   127                           
   128                           ; 2 bytes @ 0x38
   129  000039                     	ds	2
   130  00003B                     main@ledCount:
   131                           	opt stack 0
   132                           
   133                           ; 2 bytes @ 0x3A
   134  00003B                     	ds	2
   135  00003D                     main@i_181:
   136                           	opt stack 0
   137                           
   138                           ; 2 bytes @ 0x3C
   139  00003D                     	ds	2
   140  00003F                     main@tempColour:
   141                           	opt stack 0
   142                           
   143                           ; 4 bytes @ 0x3E
   144  00003F                     	ds	4
   145                           tblptru	equ	0xFF8
   146                           tblptrh	equ	0xFF7
   147                           tblptrl	equ	0xFF6
   148                           tablat	equ	0xFF5
   149                           postinc0	equ	0xFEE
   150                           postdec1	equ	0xFE5
   151                           fsr1l	equ	0xFE1
   152                           
   153 ;;
   154 ;;Main: autosize = 0, tempsize = 6, incstack = 0, save=0
   155 ;;
   156 ;; *************** function _main *****************
   157 ;; Defined at:
   158 ;;		line 84 in file "newmain.c"
   159 ;; Parameters:    Size  Location     Type
   160 ;;		None
   161 ;; Auto vars:     Size  Location     Type
   162 ;;  tempColour      4   62[COMRAM] long 
   163 ;;  i               2   54[COMRAM] int 
   164 ;;  ledCount        2   58[COMRAM] int 
   165 ;;  i               2   60[COMRAM] int 
   166 ;;  i               2   56[COMRAM] int 
   167 ;;  ledColour      48    6[COMRAM] long [12]
   168 ;; Return value:  Size  Location     Type
   169 ;;		None               void
   170 ;; Registers used:
   171 ;;		wreg, fsr1l, fsr1h, fsr2l, fsr2h, status,2, status,0, cstack
   172 ;; Tracked objects:
   173 ;;		On entry : 0/0
   174 ;;		On exit  : 0/0
   175 ;;		Unchanged: 0/0
   176 ;; Data sizes:     COMRAM   BANK0   BANK1   BANK2   BANK3   BANK4   BANK5   BANK6   BANK7
   177 ;;      Params:         0       0       0       0       0       0       0       0       0
   178 ;;      Locals:        60       0       0       0       0       0       0       0       0
   179 ;;      Temps:          6       0       0       0       0       0       0       0       0
   180 ;;      Totals:        66       0       0       0       0       0       0       0       0
   181 ;;Total ram usage:       66 bytes
   182 ;; Hardware stack levels required when called:    1
   183 ;; This function calls:
   184 ;;		_one
   185 ;;		_zero
   186 ;; This function is called by:
   187 ;;		Startup code after reset
   188 ;; This function uses a non-reentrant model
   189 ;;
   190                           
   191                           	psect	text0
   192  005B7E                     __ptext0:
   193                           	opt stack 0
   194  005B7E                     _main:
   195                           	opt stack 30
   196                           
   197                           ;newmain.c: 85: TRISA=0;
   198                           
   199                           ;incstack = 0
   200  005B7E  0E00               	movlw	0
   201  005B80  6E92               	movwf	3986,c	;volatile
   202                           
   203                           ;newmain.c: 86: TRISB=0;
   204  005B82  0E00               	movlw	0
   205  005B84  6E93               	movwf	3987,c	;volatile
   206                           
   207                           ;newmain.c: 87: TRISC=0;
   208  005B86  0E00               	movlw	0
   209  005B88  6E94               	movwf	3988,c	;volatile
   210                           
   211                           ;newmain.c: 88: PORTA=0xff;
   212  005B8A  6880               	setf	3968,c	;volatile
   213                           
   214                           ;newmain.c: 89: PORTB=0xff;
   215  005B8C  6881               	setf	3969,c	;volatile
   216                           
   217                           ;newmain.c: 90: PORTC=0xff;
   218  005B8E  6882               	setf	3970,c	;volatile
   219                           
   220                           ;newmain.c: 92: ADCON1=0b00001111;
   221  005B90  0E0F               	movlw	15
   222  005B92  6EC1               	movwf	4033,c	;volatile
   223                           
   224                           ;newmain.c: 93: T1CONbits.TMR1CS = 0;
   225  005B94  92CD               	bcf	4045,1,c	;volatile
   226                           
   227                           ;newmain.c: 94: T1CONbits.T1OSCEN = 0;
   228  005B96  96CD               	bcf	4045,3,c	;volatile
   229                           
   230                           ;newmain.c: 96: long ledColour[12] = {0x00001f, 0x001f00, 0x1f0000, 0x00001f, 0x00001f, 
      +                          0x00001f, 0x00001f, 0x00001f, 0x00001f, 0x00001f, 0x00001f, 0x00001f};
   231  005B98  EE20  F060         	lfsr	2,main@F3971
   232  005B9C  EE10  F007         	lfsr	1,main@ledColour
   233  005BA0  0E2F               	movlw	47
   234  005BA2                     u381:
   235  005BA2  CFDB FFE3          	movff	plusw2,plusw1
   236  005BA6  06E8               	decf	wreg,f,c
   237  005BA8  E2FC               	bc	u381
   238                           
   239                           ;newmain.c: 98: for(int i = 0; i < 12; i++) {
   240  005BAA  0E00               	movlw	0
   241  005BAC  6E3A               	movwf	main@i+1,c
   242  005BAE  0E00               	movlw	0
   243  005BB0  6E39               	movwf	main@i,c
   244  005BB2                     l1044:
   245  005BB2  BE3A               	btfsc	main@i+1,7,c
   246  005BB4  D006               	goto	l1048
   247  005BB6  503A               	movf	main@i+1,w,c
   248  005BB8  E11B               	bnz	l1054
   249  005BBA  0E0C               	movlw	12
   250  005BBC  5C39               	subwf	main@i,w,c
   251  005BBE  B0D8               	btfsc	status,0,c
   252  005BC0  D017               	goto	l1054
   253  005BC2                     l1048:
   254                           
   255                           ;newmain.c: 99: ledColour[i] = 0;
   256  005BC2  0E07               	movlw	low main@ledColour
   257  005BC4  6E01               	movwf	??_main& (0+255),c
   258  005BC6  0E00               	movlw	high main@ledColour
   259  005BC8  6E02               	movwf	(??_main+1)& (0+255),c
   260  005BCA  90D8               	bcf	status,0,c
   261  005BCC  3439               	rlcf	main@i,w,c
   262  005BCE  6ED9               	movwf	fsr2l,c
   263  005BD0  343A               	rlcf	main@i+1,w,c
   264  005BD2  6EDA               	movwf	fsr2h,c
   265  005BD4  90D8               	bcf	status,0,c
   266  005BD6  36D9               	rlcf	fsr2l,f,c
   267  005BD8  36DA               	rlcf	fsr2h,f,c
   268  005BDA  5001               	movf	??_main,w,c
   269  005BDC  26D9               	addwf	fsr2l,f,c
   270  005BDE  5002               	movf	??_main+1,w,c
   271  005BE0  22DA               	addwfc	fsr2h,f,c
   272  005BE2  6ADE               	clrf	postinc2,c
   273  005BE4  6ADE               	clrf	postinc2,c
   274  005BE6  6ADE               	clrf	postinc2,c
   275  005BE8  6ADD               	clrf	postdec2,c
   276  005BEA  4A39               	infsnz	main@i,f,c
   277  005BEC  2A3A               	incf	main@i+1,f,c
   278  005BEE  D7E1               	goto	l1044
   279  005BF0                     l1054:
   280                           
   281                           ;newmain.c: 100: }
   282                           ;newmain.c: 101: ledColour[0] = 0x00ff01;
   283  005BF0  0E01               	movlw	1
   284  005BF2  6E07               	movwf	main@ledColour,c
   285  005BF4  0EFF               	movlw	255
   286  005BF6  6E08               	movwf	main@ledColour+1,c
   287  005BF8  0E00               	movlw	0
   288  005BFA  6E09               	movwf	main@ledColour+2,c
   289  005BFC  0E00               	movlw	0
   290  005BFE  6E0A               	movwf	main@ledColour+3,c
   291  005C00                     l43:
   292                           
   293                           ;newmain.c: 113: for(int i = 0; i < 12; i++) {
   294  005C00  0E00               	movlw	0
   295  005C02  6E3E               	movwf	main@i_181+1,c
   296  005C04  0E00               	movlw	0
   297  005C06  6E3D               	movwf	main@i_181,c
   298  005C08  BE3E               	btfsc	main@i_181+1,7,c
   299  005C0A  D008               	goto	l1060
   300  005C0C  503E               	movf	main@i_181+1,w,c
   301  005C0E  E105               	bnz	u410
   302  005C10  0E0C               	movlw	12
   303  005C12  5C3D               	subwf	main@i_181,w,c
   304  005C14  B0D8               	btfsc	status,0,c
   305  005C16  D09C               	goto	l1076
   306  005C18  D001               	goto	l1060
   307  005C1A                     u410:
   308  005C1A  D09A               	goto	l1076
   309  005C1C                     l1060:
   310                           
   311                           ;newmain.c: 114: if(ledColour[i] > 0) {
   312  005C1C  0E07               	movlw	low main@ledColour
   313  005C1E  6E01               	movwf	??_main& (0+255),c
   314  005C20  0E00               	movlw	high main@ledColour
   315  005C22  6E02               	movwf	(??_main+1)& (0+255),c
   316  005C24  90D8               	bcf	status,0,c
   317  005C26  343D               	rlcf	main@i_181,w,c
   318  005C28  6ED9               	movwf	fsr2l,c
   319  005C2A  343E               	rlcf	main@i_181+1,w,c
   320  005C2C  6EDA               	movwf	fsr2h,c
   321  005C2E  90D8               	bcf	status,0,c
   322  005C30  36D9               	rlcf	fsr2l,f,c
   323  005C32  36DA               	rlcf	fsr2h,f,c
   324  005C34  5001               	movf	??_main,w,c
   325  005C36  26D9               	addwf	fsr2l,f,c
   326  005C38  5002               	movf	??_main+1,w,c
   327  005C3A  22DA               	addwfc	fsr2h,f,c
   328  005C3C  0E03               	movlw	3
   329  005C3E  BEDB               	btfsc	plusw2,7,c
   330  005C40  D021               	goto	l46
   331  005C42  0E03               	movlw	3
   332  005C44  50DB               	movf	plusw2,w,c
   333  005C46  E109               	bnz	u420
   334  005C48  0E02               	movlw	2
   335  005C4A  50DB               	movf	plusw2,w,c
   336  005C4C  E106               	bnz	u420
   337  005C4E  0E01               	movlw	1
   338  005C50  50DB               	movf	plusw2,w,c
   339  005C52  E103               	bnz	u420
   340  005C54  04DE               	decf	postinc2,w,c
   341  005C56  A0D8               	btfss	status,0,c
   342  005C58  D015               	goto	l46
   343  005C5A                     u420:
   344                           
   345                           ;newmain.c: 115: ledColour[i]++;
   346  005C5A  0E07               	movlw	low main@ledColour
   347  005C5C  6E01               	movwf	??_main& (0+255),c
   348  005C5E  0E00               	movlw	high main@ledColour
   349  005C60  6E02               	movwf	(??_main+1)& (0+255),c
   350  005C62  90D8               	bcf	status,0,c
   351  005C64  343D               	rlcf	main@i_181,w,c
   352  005C66  6ED9               	movwf	fsr2l,c
   353  005C68  343E               	rlcf	main@i_181+1,w,c
   354  005C6A  6EDA               	movwf	fsr2h,c
   355  005C6C  90D8               	bcf	status,0,c
   356  005C6E  36D9               	rlcf	fsr2l,f,c
   357  005C70  36DA               	rlcf	fsr2h,f,c
   358  005C72  5001               	movf	??_main,w,c
   359  005C74  26D9               	addwf	fsr2l,f,c
   360  005C76  5002               	movf	??_main+1,w,c
   361  005C78  22DA               	addwfc	fsr2h,f,c
   362  005C7A  2ADE               	incf	postinc2,f,c
   363  005C7C  0E00               	movlw	0
   364  005C7E  22DE               	addwfc	postinc2,f,c
   365  005C80  22DE               	addwfc	postinc2,f,c
   366  005C82  22DE               	addwfc	postinc2,f,c
   367  005C84                     l46:
   368                           
   369                           ;newmain.c: 116: }
   370                           ;newmain.c: 118: if(ledColour[i] >= 0xffff) {
   371  005C84  0E07               	movlw	low main@ledColour
   372  005C86  6E01               	movwf	??_main& (0+255),c
   373  005C88  0E00               	movlw	high main@ledColour
   374  005C8A  6E02               	movwf	(??_main+1)& (0+255),c
   375  005C8C  90D8               	bcf	status,0,c
   376  005C8E  343D               	rlcf	main@i_181,w,c
   377  005C90  6ED9               	movwf	fsr2l,c
   378  005C92  343E               	rlcf	main@i_181+1,w,c
   379  005C94  6EDA               	movwf	fsr2h,c
   380  005C96  90D8               	bcf	status,0,c
   381  005C98  36D9               	rlcf	fsr2l,f,c
   382  005C9A  36DA               	rlcf	fsr2h,f,c
   383  005C9C  5001               	movf	??_main,w,c
   384  005C9E  26D9               	addwf	fsr2l,f,c
   385  005CA0  5002               	movf	??_main+1,w,c
   386  005CA2  22DA               	addwfc	fsr2h,f,c
   387  005CA4  0E03               	movlw	3
   388  005CA6  BEDB               	btfsc	plusw2,7,c
   389  005CA8  D04C               	goto	l1072
   390  005CAA  0E03               	movlw	3
   391  005CAC  50DB               	movf	plusw2,w,c
   392  005CAE  E108               	bnz	u430
   393  005CB0  0E02               	movlw	2
   394  005CB2  50DB               	movf	plusw2,w,c
   395  005CB4  E105               	bnz	u430
   396  005CB6  28DE               	incf	postinc2,w,c
   397  005CB8  0EFF               	movlw	255
   398  005CBA  58DE               	subwfb	postinc2,w,c
   399  005CBC  A0D8               	btfss	status,0,c
   400  005CBE  D041               	goto	l1072
   401  005CC0                     u430:
   402                           
   403                           ;newmain.c: 119: ledColour[i] = 0;
   404  005CC0  0E07               	movlw	low main@ledColour
   405  005CC2  6E01               	movwf	??_main& (0+255),c
   406  005CC4  0E00               	movlw	high main@ledColour
   407  005CC6  6E02               	movwf	(??_main+1)& (0+255),c
   408  005CC8  90D8               	bcf	status,0,c
   409  005CCA  343D               	rlcf	main@i_181,w,c
   410  005CCC  6ED9               	movwf	fsr2l,c
   411  005CCE  343E               	rlcf	main@i_181+1,w,c
   412  005CD0  6EDA               	movwf	fsr2h,c
   413  005CD2  90D8               	bcf	status,0,c
   414  005CD4  36D9               	rlcf	fsr2l,f,c
   415  005CD6  36DA               	rlcf	fsr2h,f,c
   416  005CD8  5001               	movf	??_main,w,c
   417  005CDA  26D9               	addwf	fsr2l,f,c
   418  005CDC  5002               	movf	??_main+1,w,c
   419  005CDE  22DA               	addwfc	fsr2h,f,c
   420  005CE0  6ADE               	clrf	postinc2,c
   421  005CE2  6ADE               	clrf	postinc2,c
   422  005CE4  6ADE               	clrf	postinc2,c
   423  005CE6  6ADD               	clrf	postdec2,c
   424                           
   425                           ;newmain.c: 120: if(i < 11) {
   426  005CE8  BE3E               	btfsc	main@i_181+1,7,c
   427  005CEA  D006               	goto	l1068
   428  005CEC  503E               	movf	main@i_181+1,w,c
   429  005CEE  E121               	bnz	l1070
   430  005CF0  0E0B               	movlw	11
   431  005CF2  5C3D               	subwf	main@i_181,w,c
   432  005CF4  B0D8               	btfsc	status,0,c
   433  005CF6  D01D               	goto	l1070
   434  005CF8                     l1068:
   435                           
   436                           ;newmain.c: 121: ledColour[i + 1] = 0x00ff01;
   437  005CF8  C03D  F001         	movff	main@i_181,??_main
   438  005CFC  C03E  F002         	movff	main@i_181+1,??_main+1
   439  005D00  90D8               	bcf	status,0,c
   440  005D02  3601               	rlcf	??_main,f,c
   441  005D04  3602               	rlcf	??_main+1,f,c
   442  005D06  90D8               	bcf	status,0,c
   443  005D08  3601               	rlcf	??_main,f,c
   444  005D0A  3602               	rlcf	??_main+1,f,c
   445  005D0C  0E04               	movlw	4
   446  005D0E  2601               	addwf	??_main,f,c
   447  005D10  0E00               	movlw	0
   448  005D12  2202               	addwfc	??_main+1,f,c
   449  005D14  0E07               	movlw	low main@ledColour
   450  005D16  2401               	addwf	??_main,w,c
   451  005D18  6ED9               	movwf	fsr2l,c
   452  005D1A  0E00               	movlw	high main@ledColour
   453  005D1C  2002               	addwfc	??_main+1,w,c
   454  005D1E  6EDA               	movwf	fsr2h,c
   455  005D20  0E01               	movlw	1
   456  005D22  6EDE               	movwf	postinc2,c
   457  005D24  0EFF               	movlw	255
   458  005D26  6EDE               	movwf	postinc2,c
   459  005D28  0E00               	movlw	0
   460  005D2A  6EDE               	movwf	postinc2,c
   461  005D2C  0E00               	movlw	0
   462  005D2E  6EDD               	movwf	postdec2,c
   463                           
   464                           ;newmain.c: 122: } else {
   465  005D30  D008               	goto	l1072
   466  005D32                     l1070:
   467                           
   468                           ;newmain.c: 123: ledColour[0] = 0x00ff01;
   469  005D32  0E01               	movlw	1
   470  005D34  6E07               	movwf	main@ledColour,c
   471  005D36  0EFF               	movlw	255
   472  005D38  6E08               	movwf	main@ledColour+1,c
   473  005D3A  0E00               	movlw	0
   474  005D3C  6E09               	movwf	main@ledColour+2,c
   475  005D3E  0E00               	movlw	0
   476  005D40  6E0A               	movwf	main@ledColour+3,c
   477  005D42                     l1072:
   478  005D42  4A3D               	infsnz	main@i_181,f,c
   479  005D44  2A3E               	incf	main@i_181+1,f,c
   480  005D46  BE3E               	btfsc	main@i_181+1,7,c
   481  005D48  D769               	goto	l1060
   482  005D4A  503E               	movf	main@i_181+1,w,c
   483  005D4C  E101               	bnz	l1076
   484  005D4E  D760               	goto	L1
   485  005D50                     l1076:
   486                           
   487                           ;newmain.c: 124: }
   488                           ;newmain.c: 125: }
   489                           ;newmain.c: 126: }
   490                           ;newmain.c: 128: for(int ledCount = 0; ledCount < 12; ledCount++) {
   491  005D50  0E00               	movlw	0
   492  005D52  6E3C               	movwf	main@ledCount+1,c
   493  005D54  0E00               	movlw	0
   494  005D56  6E3B               	movwf	main@ledCount,c
   495  005D58  BE3C               	btfsc	main@ledCount+1,7,c
   496  005D5A  D008               	goto	l1082
   497  005D5C  503C               	movf	main@ledCount+1,w,c
   498  005D5E  E105               	bnz	u460
   499  005D60  0E0C               	movlw	12
   500  005D62  5C3B               	subwf	main@ledCount,w,c
   501  005D64  B0D8               	btfsc	status,0,c
   502  005D66  D13C               	goto	l1278
   503  005D68  D001               	goto	l1082
   504  005D6A                     u460:
   505  005D6A  D13A               	goto	l1278
   506  005D6C                     l1082:
   507                           
   508                           ;newmain.c: 129: long tempColour = ledColour[ledCount];
   509  005D6C  0E07               	movlw	low main@ledColour
   510  005D6E  6E01               	movwf	??_main& (0+255),c
   511  005D70  0E00               	movlw	high main@ledColour
   512  005D72  6E02               	movwf	(??_main+1)& (0+255),c
   513  005D74  90D8               	bcf	status,0,c
   514  005D76  343B               	rlcf	main@ledCount,w,c
   515  005D78  6ED9               	movwf	fsr2l,c
   516  005D7A  343C               	rlcf	main@ledCount+1,w,c
   517  005D7C  6EDA               	movwf	fsr2h,c
   518  005D7E  90D8               	bcf	status,0,c
   519  005D80  36D9               	rlcf	fsr2l,f,c
   520  005D82  36DA               	rlcf	fsr2h,f,c
   521  005D84  5001               	movf	??_main,w,c
   522  005D86  26D9               	addwf	fsr2l,f,c
   523  005D88  5002               	movf	??_main+1,w,c
   524  005D8A  22DA               	addwfc	fsr2h,f,c
   525  005D8C  CFDE F03F          	movff	postinc2,main@tempColour
   526  005D90  CFDE F040          	movff	postinc2,main@tempColour+1
   527  005D94  CFDE F041          	movff	postinc2,main@tempColour+2
   528  005D98  CFDE F042          	movff	postinc2,main@tempColour+3
   529                           
   530                           ;newmain.c: 130: ((tempColour & 1) == 0) ? zero() : one();
   531  005D9C  B03F               	btfsc	main@tempColour,0,c
   532  005D9E  D003               	goto	l1088
   533  005DA0  EC83  F02D         	call	_zero	;wreg free
   534  005DA4  D002               	goto	l1090
   535  005DA6                     l1088:
   536  005DA6  EC72  F02D         	call	_one	;wreg free
   537  005DAA                     l1090:
   538                           
   539                           ;newmain.c: 131: tempColour >>= 1; ((tempColour & 1) == 0) ? zero() : one();
   540  005DAA  3442               	rlcf	main@tempColour+3,w,c
   541  005DAC  3242               	rrcf	main@tempColour+3,f,c
   542  005DAE  3241               	rrcf	main@tempColour+2,f,c
   543  005DB0  3240               	rrcf	main@tempColour+1,f,c
   544  005DB2  323F               	rrcf	main@tempColour,f,c
   545  005DB4  B03F               	btfsc	main@tempColour,0,c
   546  005DB6  D003               	goto	l1096
   547  005DB8  EC83  F02D         	call	_zero	;wreg free
   548  005DBC  D002               	goto	l1098
   549  005DBE                     l1096:
   550  005DBE  EC72  F02D         	call	_one	;wreg free
   551  005DC2                     l1098:
   552                           
   553                           ;newmain.c: 132: tempColour >>= 1; ((tempColour & 1) == 0) ? zero() : one();
   554  005DC2  3442               	rlcf	main@tempColour+3,w,c
   555  005DC4  3242               	rrcf	main@tempColour+3,f,c
   556  005DC6  3241               	rrcf	main@tempColour+2,f,c
   557  005DC8  3240               	rrcf	main@tempColour+1,f,c
   558  005DCA  323F               	rrcf	main@tempColour,f,c
   559  005DCC  B03F               	btfsc	main@tempColour,0,c
   560  005DCE  D003               	goto	l1104
   561  005DD0  EC83  F02D         	call	_zero	;wreg free
   562  005DD4  D002               	goto	l1106
   563  005DD6                     l1104:
   564  005DD6  EC72  F02D         	call	_one	;wreg free
   565  005DDA                     l1106:
   566                           
   567                           ;newmain.c: 133: tempColour >>= 1; ((tempColour & 1) == 0) ? zero() : one();
   568  005DDA  3442               	rlcf	main@tempColour+3,w,c
   569  005DDC  3242               	rrcf	main@tempColour+3,f,c
   570  005DDE  3241               	rrcf	main@tempColour+2,f,c
   571  005DE0  3240               	rrcf	main@tempColour+1,f,c
   572  005DE2  323F               	rrcf	main@tempColour,f,c
   573  005DE4  B03F               	btfsc	main@tempColour,0,c
   574  005DE6  D003               	goto	l1112
   575  005DE8  EC83  F02D         	call	_zero	;wreg free
   576  005DEC  D002               	goto	l1114
   577  005DEE                     l1112:
   578  005DEE  EC72  F02D         	call	_one	;wreg free
   579  005DF2                     l1114:
   580                           
   581                           ;newmain.c: 135: tempColour >>= 1; ((tempColour & 1) == 0) ? zero() : one();
   582  005DF2  3442               	rlcf	main@tempColour+3,w,c
   583  005DF4  3242               	rrcf	main@tempColour+3,f,c
   584  005DF6  3241               	rrcf	main@tempColour+2,f,c
   585  005DF8  3240               	rrcf	main@tempColour+1,f,c
   586  005DFA  323F               	rrcf	main@tempColour,f,c
   587  005DFC  B03F               	btfsc	main@tempColour,0,c
   588  005DFE  D003               	goto	l1120
   589  005E00  EC83  F02D         	call	_zero	;wreg free
   590  005E04  D002               	goto	l1122
   591  005E06                     l1120:
   592  005E06  EC72  F02D         	call	_one	;wreg free
   593  005E0A                     l1122:
   594                           
   595                           ;newmain.c: 136: tempColour >>= 1; ((tempColour & 1) == 0) ? zero() : one();
   596  005E0A  3442               	rlcf	main@tempColour+3,w,c
   597  005E0C  3242               	rrcf	main@tempColour+3,f,c
   598  005E0E  3241               	rrcf	main@tempColour+2,f,c
   599  005E10  3240               	rrcf	main@tempColour+1,f,c
   600  005E12  323F               	rrcf	main@tempColour,f,c
   601  005E14  B03F               	btfsc	main@tempColour,0,c
   602  005E16  D003               	goto	l1128
   603  005E18  EC83  F02D         	call	_zero	;wreg free
   604  005E1C  D002               	goto	l1130
   605  005E1E                     l1128:
   606  005E1E  EC72  F02D         	call	_one	;wreg free
   607  005E22                     l1130:
   608                           
   609                           ;newmain.c: 137: tempColour >>= 1; ((tempColour & 1) == 0) ? zero() : one();
   610  005E22  3442               	rlcf	main@tempColour+3,w,c
   611  005E24  3242               	rrcf	main@tempColour+3,f,c
   612  005E26  3241               	rrcf	main@tempColour+2,f,c
   613  005E28  3240               	rrcf	main@tempColour+1,f,c
   614  005E2A  323F               	rrcf	main@tempColour,f,c
   615  005E2C  B03F               	btfsc	main@tempColour,0,c
   616  005E2E  D003               	goto	l1136
   617  005E30  EC83  F02D         	call	_zero	;wreg free
   618  005E34  D002               	goto	l1138
   619  005E36                     l1136:
   620  005E36  EC72  F02D         	call	_one	;wreg free
   621  005E3A                     l1138:
   622                           
   623                           ;newmain.c: 138: tempColour >>= 1; ((tempColour & 1) == 0) ? zero() : one();
   624  005E3A  3442               	rlcf	main@tempColour+3,w,c
   625  005E3C  3242               	rrcf	main@tempColour+3,f,c
   626  005E3E  3241               	rrcf	main@tempColour+2,f,c
   627  005E40  3240               	rrcf	main@tempColour+1,f,c
   628  005E42  323F               	rrcf	main@tempColour,f,c
   629  005E44  B03F               	btfsc	main@tempColour,0,c
   630  005E46  D003               	goto	l1144
   631  005E48  EC83  F02D         	call	_zero	;wreg free
   632  005E4C  D002               	goto	l1146
   633  005E4E                     l1144:
   634  005E4E  EC72  F02D         	call	_one	;wreg free
   635  005E52                     l1146:
   636                           
   637                           ;newmain.c: 140: tempColour >>= 1; ((tempColour & 1) == 0) ? zero() : one();
   638  005E52  3442               	rlcf	main@tempColour+3,w,c
   639  005E54  3242               	rrcf	main@tempColour+3,f,c
   640  005E56  3241               	rrcf	main@tempColour+2,f,c
   641  005E58  3240               	rrcf	main@tempColour+1,f,c
   642  005E5A  323F               	rrcf	main@tempColour,f,c
   643  005E5C  B03F               	btfsc	main@tempColour,0,c
   644  005E5E  D003               	goto	l1152
   645  005E60  EC83  F02D         	call	_zero	;wreg free
   646  005E64  D002               	goto	l1154
   647  005E66                     l1152:
   648  005E66  EC72  F02D         	call	_one	;wreg free
   649  005E6A                     l1154:
   650                           
   651                           ;newmain.c: 141: tempColour >>= 1; ((tempColour & 1) == 0) ? zero() : one();
   652  005E6A  3442               	rlcf	main@tempColour+3,w,c
   653  005E6C  3242               	rrcf	main@tempColour+3,f,c
   654  005E6E  3241               	rrcf	main@tempColour+2,f,c
   655  005E70  3240               	rrcf	main@tempColour+1,f,c
   656  005E72  323F               	rrcf	main@tempColour,f,c
   657  005E74  B03F               	btfsc	main@tempColour,0,c
   658  005E76  D003               	goto	l1160
   659  005E78  EC83  F02D         	call	_zero	;wreg free
   660  005E7C  D002               	goto	l1162
   661  005E7E                     l1160:
   662  005E7E  EC72  F02D         	call	_one	;wreg free
   663  005E82                     l1162:
   664                           
   665                           ;newmain.c: 142: tempColour >>= 1; ((tempColour & 1) == 0) ? zero() : one();
   666  005E82  3442               	rlcf	main@tempColour+3,w,c
   667  005E84  3242               	rrcf	main@tempColour+3,f,c
   668  005E86  3241               	rrcf	main@tempColour+2,f,c
   669  005E88  3240               	rrcf	main@tempColour+1,f,c
   670  005E8A  323F               	rrcf	main@tempColour,f,c
   671  005E8C  B03F               	btfsc	main@tempColour,0,c
   672  005E8E  D003               	goto	l1168
   673  005E90  EC83  F02D         	call	_zero	;wreg free
   674  005E94  D002               	goto	l1170
   675  005E96                     l1168:
   676  005E96  EC72  F02D         	call	_one	;wreg free
   677  005E9A                     l1170:
   678                           
   679                           ;newmain.c: 143: tempColour >>= 1; ((tempColour & 1) == 0) ? zero() : one();
   680  005E9A  3442               	rlcf	main@tempColour+3,w,c
   681  005E9C  3242               	rrcf	main@tempColour+3,f,c
   682  005E9E  3241               	rrcf	main@tempColour+2,f,c
   683  005EA0  3240               	rrcf	main@tempColour+1,f,c
   684  005EA2  323F               	rrcf	main@tempColour,f,c
   685  005EA4  B03F               	btfsc	main@tempColour,0,c
   686  005EA6  D003               	goto	l1176
   687  005EA8  EC83  F02D         	call	_zero	;wreg free
   688  005EAC  D002               	goto	l1178
   689  005EAE                     l1176:
   690  005EAE  EC72  F02D         	call	_one	;wreg free
   691  005EB2                     l1178:
   692                           
   693                           ;newmain.c: 145: tempColour >>= 1; ((tempColour & 1) == 0) ? zero() : one();
   694  005EB2  3442               	rlcf	main@tempColour+3,w,c
   695  005EB4  3242               	rrcf	main@tempColour+3,f,c
   696  005EB6  3241               	rrcf	main@tempColour+2,f,c
   697  005EB8  3240               	rrcf	main@tempColour+1,f,c
   698  005EBA  323F               	rrcf	main@tempColour,f,c
   699  005EBC  B03F               	btfsc	main@tempColour,0,c
   700  005EBE  D003               	goto	l1184
   701  005EC0  EC83  F02D         	call	_zero	;wreg free
   702  005EC4  D002               	goto	l1186
   703  005EC6                     l1184:
   704  005EC6  EC72  F02D         	call	_one	;wreg free
   705  005ECA                     l1186:
   706                           
   707                           ;newmain.c: 146: tempColour >>= 1; ((tempColour & 1) == 0) ? zero() : one();
   708  005ECA  3442               	rlcf	main@tempColour+3,w,c
   709  005ECC  3242               	rrcf	main@tempColour+3,f,c
   710  005ECE  3241               	rrcf	main@tempColour+2,f,c
   711  005ED0  3240               	rrcf	main@tempColour+1,f,c
   712  005ED2  323F               	rrcf	main@tempColour,f,c
   713  005ED4  B03F               	btfsc	main@tempColour,0,c
   714  005ED6  D003               	goto	l1192
   715  005ED8  EC83  F02D         	call	_zero	;wreg free
   716  005EDC  D002               	goto	l1194
   717  005EDE                     l1192:
   718  005EDE  EC72  F02D         	call	_one	;wreg free
   719  005EE2                     l1194:
   720                           
   721                           ;newmain.c: 147: tempColour >>= 1; ((tempColour & 1) == 0) ? zero() : one();
   722  005EE2  3442               	rlcf	main@tempColour+3,w,c
   723  005EE4  3242               	rrcf	main@tempColour+3,f,c
   724  005EE6  3241               	rrcf	main@tempColour+2,f,c
   725  005EE8  3240               	rrcf	main@tempColour+1,f,c
   726  005EEA  323F               	rrcf	main@tempColour,f,c
   727  005EEC  B03F               	btfsc	main@tempColour,0,c
   728  005EEE  D003               	goto	l1200
   729  005EF0  EC83  F02D         	call	_zero	;wreg free
   730  005EF4  D002               	goto	l1202
   731  005EF6                     l1200:
   732  005EF6  EC72  F02D         	call	_one	;wreg free
   733  005EFA                     l1202:
   734                           
   735                           ;newmain.c: 148: tempColour >>= 1; ((tempColour & 1) == 0) ? zero() : one();
   736  005EFA  3442               	rlcf	main@tempColour+3,w,c
   737  005EFC  3242               	rrcf	main@tempColour+3,f,c
   738  005EFE  3241               	rrcf	main@tempColour+2,f,c
   739  005F00  3240               	rrcf	main@tempColour+1,f,c
   740  005F02  323F               	rrcf	main@tempColour,f,c
   741  005F04  B03F               	btfsc	main@tempColour,0,c
   742  005F06  D003               	goto	l1208
   743  005F08  EC83  F02D         	call	_zero	;wreg free
   744  005F0C  D002               	goto	l1210
   745  005F0E                     l1208:
   746  005F0E  EC72  F02D         	call	_one	;wreg free
   747  005F12                     l1210:
   748                           
   749                           ;newmain.c: 150: tempColour >>= 1; ((tempColour & 1) == 0) ? zero() : one();
   750  005F12  3442               	rlcf	main@tempColour+3,w,c
   751  005F14  3242               	rrcf	main@tempColour+3,f,c
   752  005F16  3241               	rrcf	main@tempColour+2,f,c
   753  005F18  3240               	rrcf	main@tempColour+1,f,c
   754  005F1A  323F               	rrcf	main@tempColour,f,c
   755  005F1C  B03F               	btfsc	main@tempColour,0,c
   756  005F1E  D003               	goto	l1216
   757  005F20  EC83  F02D         	call	_zero	;wreg free
   758  005F24  D002               	goto	l1218
   759  005F26                     l1216:
   760  005F26  EC72  F02D         	call	_one	;wreg free
   761  005F2A                     l1218:
   762                           
   763                           ;newmain.c: 151: tempColour >>= 1; ((tempColour & 1) == 0) ? zero() : one();
   764  005F2A  3442               	rlcf	main@tempColour+3,w,c
   765  005F2C  3242               	rrcf	main@tempColour+3,f,c
   766  005F2E  3241               	rrcf	main@tempColour+2,f,c
   767  005F30  3240               	rrcf	main@tempColour+1,f,c
   768  005F32  323F               	rrcf	main@tempColour,f,c
   769  005F34  B03F               	btfsc	main@tempColour,0,c
   770  005F36  D003               	goto	l1224
   771  005F38  EC83  F02D         	call	_zero	;wreg free
   772  005F3C  D002               	goto	l1226
   773  005F3E                     l1224:
   774  005F3E  EC72  F02D         	call	_one	;wreg free
   775  005F42                     l1226:
   776                           
   777                           ;newmain.c: 152: tempColour >>= 1; ((tempColour & 1) == 0) ? zero() : one();
   778  005F42  3442               	rlcf	main@tempColour+3,w,c
   779  005F44  3242               	rrcf	main@tempColour+3,f,c
   780  005F46  3241               	rrcf	main@tempColour+2,f,c
   781  005F48  3240               	rrcf	main@tempColour+1,f,c
   782  005F4A  323F               	rrcf	main@tempColour,f,c
   783  005F4C  B03F               	btfsc	main@tempColour,0,c
   784  005F4E  D003               	goto	l1232
   785  005F50  EC83  F02D         	call	_zero	;wreg free
   786  005F54  D002               	goto	l1234
   787  005F56                     l1232:
   788  005F56  EC72  F02D         	call	_one	;wreg free
   789  005F5A                     l1234:
   790                           
   791                           ;newmain.c: 153: tempColour >>= 1; ((tempColour & 1) == 0) ? zero() : one();
   792  005F5A  3442               	rlcf	main@tempColour+3,w,c
   793  005F5C  3242               	rrcf	main@tempColour+3,f,c
   794  005F5E  3241               	rrcf	main@tempColour+2,f,c
   795  005F60  3240               	rrcf	main@tempColour+1,f,c
   796  005F62  323F               	rrcf	main@tempColour,f,c
   797  005F64  B03F               	btfsc	main@tempColour,0,c
   798  005F66  D003               	goto	l1240
   799  005F68  EC83  F02D         	call	_zero	;wreg free
   800  005F6C  D002               	goto	l1242
   801  005F6E                     l1240:
   802  005F6E  EC72  F02D         	call	_one	;wreg free
   803  005F72                     l1242:
   804                           
   805                           ;newmain.c: 155: tempColour >>= 1; ((tempColour & 1) == 0) ? zero() : one();
   806  005F72  3442               	rlcf	main@tempColour+3,w,c
   807  005F74  3242               	rrcf	main@tempColour+3,f,c
   808  005F76  3241               	rrcf	main@tempColour+2,f,c
   809  005F78  3240               	rrcf	main@tempColour+1,f,c
   810  005F7A  323F               	rrcf	main@tempColour,f,c
   811  005F7C  B03F               	btfsc	main@tempColour,0,c
   812  005F7E  D003               	goto	l1248
   813  005F80  EC83  F02D         	call	_zero	;wreg free
   814  005F84  D002               	goto	l1250
   815  005F86                     l1248:
   816  005F86  EC72  F02D         	call	_one	;wreg free
   817  005F8A                     l1250:
   818                           
   819                           ;newmain.c: 156: tempColour >>= 1; ((tempColour & 1) == 0) ? zero() : one();
   820  005F8A  3442               	rlcf	main@tempColour+3,w,c
   821  005F8C  3242               	rrcf	main@tempColour+3,f,c
   822  005F8E  3241               	rrcf	main@tempColour+2,f,c
   823  005F90  3240               	rrcf	main@tempColour+1,f,c
   824  005F92  323F               	rrcf	main@tempColour,f,c
   825  005F94  B03F               	btfsc	main@tempColour,0,c
   826  005F96  D003               	goto	l1256
   827  005F98  EC83  F02D         	call	_zero	;wreg free
   828  005F9C  D002               	goto	l1258
   829  005F9E                     l1256:
   830  005F9E  EC72  F02D         	call	_one	;wreg free
   831  005FA2                     l1258:
   832                           
   833                           ;newmain.c: 157: tempColour >>= 1; ((tempColour & 1) == 0) ? zero() : one();
   834  005FA2  3442               	rlcf	main@tempColour+3,w,c
   835  005FA4  3242               	rrcf	main@tempColour+3,f,c
   836  005FA6  3241               	rrcf	main@tempColour+2,f,c
   837  005FA8  3240               	rrcf	main@tempColour+1,f,c
   838  005FAA  323F               	rrcf	main@tempColour,f,c
   839  005FAC  B03F               	btfsc	main@tempColour,0,c
   840  005FAE  D003               	goto	l1264
   841  005FB0  EC83  F02D         	call	_zero	;wreg free
   842  005FB4  D002               	goto	l1266
   843  005FB6                     l1264:
   844  005FB6  EC72  F02D         	call	_one	;wreg free
   845  005FBA                     l1266:
   846                           
   847                           ;newmain.c: 158: tempColour >>= 1; ((tempColour & 1) == 0) ? zero() : one();
   848  005FBA  3442               	rlcf	main@tempColour+3,w,c
   849  005FBC  3242               	rrcf	main@tempColour+3,f,c
   850  005FBE  3241               	rrcf	main@tempColour+2,f,c
   851  005FC0  3240               	rrcf	main@tempColour+1,f,c
   852  005FC2  323F               	rrcf	main@tempColour,f,c
   853  005FC4  B03F               	btfsc	main@tempColour,0,c
   854  005FC6  D003               	goto	l1272
   855  005FC8  EC83  F02D         	call	_zero	;wreg free
   856  005FCC  D002               	goto	l1274
   857  005FCE                     l1272:
   858  005FCE  EC72  F02D         	call	_one	;wreg free
   859  005FD2                     l1274:
   860  005FD2  4A3B               	infsnz	main@ledCount,f,c
   861  005FD4  2A3C               	incf	main@ledCount+1,f,c
   862  005FD6  BE3C               	btfsc	main@ledCount+1,7,c
   863  005FD8  D6C9               	goto	l1082
   864  005FDA  503C               	movf	main@ledCount+1,w,c
   865  005FDC  E101               	bnz	l1278
   866  005FDE  D6C0               	goto	L2
   867  005FE0                     l1278:
   868                           
   869                           ;newmain.c: 159: }
   870                           ;newmain.c: 161: for(int i = 0; i < 1000; i++) {
   871  005FE0  0E00               	movlw	0
   872  005FE2  6E38               	movwf	main@i_186+1,c
   873  005FE4  0E00               	movlw	0
   874  005FE6  6E37               	movwf	main@i_186,c
   875  005FE8                     l1280:
   876  005FE8  BE38               	btfsc	main@i_186+1,7,c
   877  005FEA  D006               	goto	l148
   878  005FEC  0EE8               	movlw	232
   879  005FEE  5C37               	subwf	main@i_186,w,c
   880  005FF0  0E03               	movlw	3
   881  005FF2  5838               	subwfb	main@i_186+1,w,c
   882  005FF4  B0D8               	btfsc	status,0,c
   883  005FF6  D604               	goto	l43
   884  005FF8                     l148:
   885                           
   886                           ;newmain.c: 162: PORTAbits.RA0=0;
   887  005FF8  9080               	bcf	3968,0,c	;volatile
   888  005FFA  4A37               	infsnz	main@i_186,f,c
   889  005FFC  2A38               	incf	main@i_186+1,f,c
   890  005FFE  D7F4               	goto	l1280
   891  006000                     __end_of_main:
   892                           	opt stack 0
   893                           tblptru	equ	0xFF8
   894                           tblptrh	equ	0xFF7
   895                           tblptrl	equ	0xFF6
   896                           tablat	equ	0xFF5
   897                           postinc0	equ	0xFEE
   898                           wreg	equ	0xFE8
   899                           postdec1	equ	0xFE5
   900                           plusw1	equ	0xFE3
   901                           fsr1l	equ	0xFE1
   902                           postinc2	equ	0xFDE
   903                           postdec2	equ	0xFDD
   904                           plusw2	equ	0xFDB
   905                           fsr2h	equ	0xFDA
   906                           fsr2l	equ	0xFD9
   907                           status	equ	0xFD8
   908                           
   909 ;; *************** function _zero *****************
   910 ;; Defined at:
   911 ;;		line 64 in file "newmain.c"
   912 ;; Parameters:    Size  Location     Type
   913 ;;		None
   914 ;; Auto vars:     Size  Location     Type
   915 ;;		None
   916 ;; Return value:  Size  Location     Type
   917 ;;		None               void
   918 ;; Registers used:
   919 ;;		None
   920 ;; Tracked objects:
   921 ;;		On entry : 0/0
   922 ;;		On exit  : 0/0
   923 ;;		Unchanged: 0/0
   924 ;; Data sizes:     COMRAM   BANK0   BANK1   BANK2   BANK3   BANK4   BANK5   BANK6   BANK7
   925 ;;      Params:         0       0       0       0       0       0       0       0       0
   926 ;;      Locals:         0       0       0       0       0       0       0       0       0
   927 ;;      Temps:          0       0       0       0       0       0       0       0       0
   928 ;;      Totals:         0       0       0       0       0       0       0       0       0
   929 ;;Total ram usage:        0 bytes
   930 ;; Hardware stack levels used:    1
   931 ;; This function calls:
   932 ;;		Nothing
   933 ;; This function is called by:
   934 ;;		_main
   935 ;; This function uses a non-reentrant model
   936 ;;
   937                           
   938                           	psect	text1
   939  005B06                     __ptext1:
   940                           	opt stack 0
   941  005B06                     _zero:
   942                           	opt stack 30
   943                           
   944                           ;newmain.c: 66: PORTAbits.RA0=1;
   945                           
   946                           ;incstack = 0
   947  005B06  8080               	bsf	3968,0,c	;volatile
   948                           
   949                           ;newmain.c: 67: PORTAbits.RA0=1;
   950  005B08  8080               	bsf	3968,0,c	;volatile
   951                           
   952                           ;newmain.c: 68: PORTAbits.RA0=1;
   953  005B0A  8080               	bsf	3968,0,c	;volatile
   954                           
   955                           ;newmain.c: 69: PORTAbits.RA0=1;
   956  005B0C  8080               	bsf	3968,0,c	;volatile
   957                           
   958                           ;newmain.c: 70: PORTAbits.RA0=1;
   959  005B0E  8080               	bsf	3968,0,c	;volatile
   960                           
   961                           ;newmain.c: 71: PORTAbits.RA0=0;
   962  005B10  9080               	bcf	3968,0,c	;volatile
   963                           
   964                           ;newmain.c: 72: PORTAbits.RA0=0;
   965  005B12  9080               	bcf	3968,0,c	;volatile
   966                           
   967                           ;newmain.c: 73: PORTAbits.RA0=0;
   968  005B14  9080               	bcf	3968,0,c	;volatile
   969                           
   970                           ;newmain.c: 74: PORTAbits.RA0=0;
   971  005B16  9080               	bcf	3968,0,c	;volatile
   972                           
   973                           ;newmain.c: 75: PORTAbits.RA0=0;
   974  005B18  9080               	bcf	3968,0,c	;volatile
   975                           
   976                           ;newmain.c: 76: PORTAbits.RA0=0;
   977  005B1A  9080               	bcf	3968,0,c	;volatile
   978                           
   979                           ;newmain.c: 77: PORTAbits.RA0=0;
   980  005B1C  9080               	bcf	3968,0,c	;volatile
   981                           
   982                           ;newmain.c: 78: PORTAbits.RA0=0;
   983  005B1E  9080               	bcf	3968,0,c	;volatile
   984                           
   985                           ;newmain.c: 79: PORTAbits.RA0=0;
   986  005B20  9080               	bcf	3968,0,c	;volatile
   987                           
   988                           ;newmain.c: 80: PORTAbits.RA0=0;
   989  005B22  9080               	bcf	3968,0,c	;volatile
   990                           
   991                           ;newmain.c: 81: PORTAbits.RA0=0;
   992  005B24  9080               	bcf	3968,0,c	;volatile
   993  005B26  0012               	return		;funcret
   994  005B28                     __end_of_zero:
   995                           	opt stack 0
   996                           tblptru	equ	0xFF8
   997                           tblptrh	equ	0xFF7
   998                           tblptrl	equ	0xFF6
   999                           tablat	equ	0xFF5
  1000                           postinc0	equ	0xFEE
  1001                           wreg	equ	0xFE8
  1002                           postdec1	equ	0xFE5
  1003                           plusw1	equ	0xFE3
  1004                           fsr1l	equ	0xFE1
  1005                           postinc2	equ	0xFDE
  1006                           postdec2	equ	0xFDD
  1007                           plusw2	equ	0xFDB
  1008                           fsr2h	equ	0xFDA
  1009                           fsr2l	equ	0xFD9
  1010                           status	equ	0xFD8
  1011                           
  1012 ;; *************** function _one *****************
  1013 ;; Defined at:
  1014 ;;		line 30 in file "newmain.c"
  1015 ;; Parameters:    Size  Location     Type
  1016 ;;		None
  1017 ;; Auto vars:     Size  Location     Type
  1018 ;;		None
  1019 ;; Return value:  Size  Location     Type
  1020 ;;		None               void
  1021 ;; Registers used:
  1022 ;;		None
  1023 ;; Tracked objects:
  1024 ;;		On entry : 0/0
  1025 ;;		On exit  : 0/0
  1026 ;;		Unchanged: 0/0
  1027 ;; Data sizes:     COMRAM   BANK0   BANK1   BANK2   BANK3   BANK4   BANK5   BANK6   BANK7
  1028 ;;      Params:         0       0       0       0       0       0       0       0       0
  1029 ;;      Locals:         0       0       0       0       0       0       0       0       0
  1030 ;;      Temps:          0       0       0       0       0       0       0       0       0
  1031 ;;      Totals:         0       0       0       0       0       0       0       0       0
  1032 ;;Total ram usage:        0 bytes
  1033 ;; Hardware stack levels used:    1
  1034 ;; This function calls:
  1035 ;;		Nothing
  1036 ;; This function is called by:
  1037 ;;		_main
  1038 ;; This function uses a non-reentrant model
  1039 ;;
  1040                           
  1041                           	psect	text2
  1042  005AE4                     __ptext2:
  1043                           	opt stack 0
  1044  005AE4                     _one:
  1045                           	opt stack 30
  1046                           
  1047                           ;newmain.c: 32: PORTAbits.RA0=1;
  1048                           
  1049                           ;incstack = 0
  1050  005AE4  8080               	bsf	3968,0,c	;volatile
  1051                           
  1052                           ;newmain.c: 33: PORTAbits.RA0=1;
  1053  005AE6  8080               	bsf	3968,0,c	;volatile
  1054                           
  1055                           ;newmain.c: 34: PORTAbits.RA0=1;
  1056  005AE8  8080               	bsf	3968,0,c	;volatile
  1057                           
  1058                           ;newmain.c: 35: PORTAbits.RA0=1;
  1059  005AEA  8080               	bsf	3968,0,c	;volatile
  1060                           
  1061                           ;newmain.c: 36: PORTAbits.RA0=1;
  1062  005AEC  8080               	bsf	3968,0,c	;volatile
  1063                           
  1064                           ;newmain.c: 37: PORTAbits.RA0=1;
  1065  005AEE  8080               	bsf	3968,0,c	;volatile
  1066                           
  1067                           ;newmain.c: 38: PORTAbits.RA0=1;
  1068  005AF0  8080               	bsf	3968,0,c	;volatile
  1069                           
  1070                           ;newmain.c: 39: PORTAbits.RA0=1;
  1071  005AF2  8080               	bsf	3968,0,c	;volatile
  1072                           
  1073                           ;newmain.c: 40: PORTAbits.RA0=1;
  1074  005AF4  8080               	bsf	3968,0,c	;volatile
  1075                           
  1076                           ;newmain.c: 41: PORTAbits.RA0=1;
  1077  005AF6  8080               	bsf	3968,0,c	;volatile
  1078                           
  1079                           ;newmain.c: 42: PORTAbits.RA0=0;
  1080  005AF8  9080               	bcf	3968,0,c	;volatile
  1081                           
  1082                           ;newmain.c: 43: PORTAbits.RA0=0;
  1083  005AFA  9080               	bcf	3968,0,c	;volatile
  1084                           
  1085                           ;newmain.c: 44: PORTAbits.RA0=0;
  1086  005AFC  9080               	bcf	3968,0,c	;volatile
  1087                           
  1088                           ;newmain.c: 45: PORTAbits.RA0=0;
  1089  005AFE  9080               	bcf	3968,0,c	;volatile
  1090                           
  1091                           ;newmain.c: 46: PORTAbits.RA0=0;
  1092  005B00  9080               	bcf	3968,0,c	;volatile
  1093                           
  1094                           ;newmain.c: 47: PORTAbits.RA0=0;
  1095  005B02  9080               	bcf	3968,0,c	;volatile
  1096  005B04  0012               	return		;funcret
  1097  005B06                     __end_of_one:
  1098                           	opt stack 0
  1099  0000                     tblptru	equ	0xFF8
  1100                           tblptrh	equ	0xFF7
  1101                           tblptrl	equ	0xFF6
  1102                           tablat	equ	0xFF5
  1103                           postinc0	equ	0xFEE
  1104                           wreg	equ	0xFE8
  1105                           postdec1	equ	0xFE5
  1106                           plusw1	equ	0xFE3
  1107                           fsr1l	equ	0xFE1
  1108                           postinc2	equ	0xFDE
  1109                           postdec2	equ	0xFDD
  1110                           plusw2	equ	0xFDB
  1111                           fsr2h	equ	0xFDA
  1112                           fsr2l	equ	0xFD9
  1113                           status	equ	0xFD8
  1114                           tblptru	equ	0xFF8
  1115                           tblptrh	equ	0xFF7
  1116                           tblptrl	equ	0xFF6
  1117                           tablat	equ	0xFF5
  1118                           postinc0	equ	0xFEE
  1119                           wreg	equ	0xFE8
  1120                           postdec1	equ	0xFE5
  1121                           plusw1	equ	0xFE3
  1122                           fsr1l	equ	0xFE1
  1123                           postinc2	equ	0xFDE
  1124                           postdec2	equ	0xFDD
  1125                           plusw2	equ	0xFDB
  1126                           fsr2h	equ	0xFDA
  1127                           fsr2l	equ	0xFD9
  1128                           status	equ	0xFD8
  1129                           
  1130                           	psect	rparam
  1131  0000                     tblptru	equ	0xFF8
  1132                           tblptrh	equ	0xFF7
  1133                           tblptrl	equ	0xFF6
  1134                           tablat	equ	0xFF5
  1135                           postinc0	equ	0xFEE
  1136                           wreg	equ	0xFE8
  1137                           postdec1	equ	0xFE5
  1138                           plusw1	equ	0xFE3
  1139                           fsr1l	equ	0xFE1
  1140                           postinc2	equ	0xFDE
  1141                           postdec2	equ	0xFDD
  1142                           plusw2	equ	0xFDB
  1143                           fsr2h	equ	0xFDA
  1144                           fsr2l	equ	0xFD9
  1145                           status	equ	0xFD8


Data Sizes:
    Strings     0
    Constant    0
    Data        48
    BSS         0
    Persistent  0
    Stack       0

Auto Spaces:
    Space          Size  Autos    Used
    COMRAM           95     66      66
    BANK0           160      0      48
    BANK1           256      0       0
    BANK2           256      0       0
    BANK3           256      0       0
    BANK4           256      0       0
    BANK5           256      0       0
    BANK6           256      0       0
    BANK7           256      0       0

Pointer List with Targets:

    None.

Critical Paths under _main in COMRAM

    None.

Critical Paths under _main in BANK0

    None.

Critical Paths under _main in BANK1

    None.

Critical Paths under _main in BANK2

    None.

Critical Paths under _main in BANK3

    None.

Critical Paths under _main in BANK4

    None.

Critical Paths under _main in BANK5

    None.

Critical Paths under _main in BANK6

    None.

Critical Paths under _main in BANK7

    None.

Call Graph Tables:

 ---------------------------------------------------------------------------------
 (Depth) Function   	        Calls       Base Space   Used Autos Params    Refs
 ---------------------------------------------------------------------------------
 (0) _main                                                66    66      0    1080
                                              0 COMRAM    66    66      0
                                _one
                               _zero
 ---------------------------------------------------------------------------------
 (1) _zero                                                 0     0      0       0
 ---------------------------------------------------------------------------------
 (1) _one                                                  0     0      0       0
 ---------------------------------------------------------------------------------
 Estimated maximum stack depth 1
 ---------------------------------------------------------------------------------

 Call Graph Graphs:

 _main (ROOT)
   _one
   _zero

 Address spaces:
Name               Size   Autos  Total    Cost      Usage
BIGRAM             7FF      0       0      21        0.0%
EEDATA             100      0       0       0        0.0%
BITBANK7           100      0       0      18        0.0%
BANK7              100      0       0      19        0.0%
BITBANK6           100      0       0      16        0.0%
BANK6              100      0       0      17        0.0%
BITBANK5           100      0       0      14        0.0%
BANK5              100      0       0      15        0.0%
BITBANK4           100      0       0      12        0.0%
BANK4              100      0       0      13        0.0%
BITBANK3           100      0       0      10        0.0%
BANK3              100      0       0      11        0.0%
BITBANK2           100      0       0       8        0.0%
BANK2              100      0       0       9        0.0%
BITBANK1           100      0       0       6        0.0%
BANK1              100      0       0       7        0.0%
BITBANK0            A0      0       0       4        0.0%
BANK0               A0      0      30       5       30.0%
BITCOMRAM           5F      0       0       0        0.0%
COMRAM              5F     42      42       1       69.5%
BITSFR               0      0       0      40        0.0%
SFR                  0      0       0      40        0.0%
STACK                0      0       0       2        0.0%
NULL                 0      0       0       0        0.0%
ABS                  0      0      72      20        0.0%
DATA                 0      0      72       3        0.0%
CODE                 0      0       0       0        0.0%


Microchip Technology PIC18 Macro Assembler V1.35 build -356382666 
Symbol Table                                                                                   Thu Mar 31 01:05:17 2016

                     l43 5C00                       l46 5C84              __CFG_BOR$ON 000000  
            __CFG_BORV$3 000000             __CFG_CP0$OFF 000000             __CFG_CP1$OFF 000000  
           __CFG_CP2$OFF 000000                      l148 5FF8             __CFG_CPB$OFF 000000  
                    u410 5C1A                      u420 5C5A                      u430 5CC0  
           __CFG_CPD$OFF 000000                      u460 5D6A                      u381 5BA2  
                    _one 5AE4                      wreg 000FE8             __CFG_LVP$OFF 000000  
           __CFG_WDT$OFF 000000                     l1200 5EF6                     l1120 5E06  
                   l1112 5DEE                     l1104 5DD6                     l1210 5F12  
                   l1202 5EFA                     l1130 5E22                     l1122 5E0A  
                   l1114 5DF2                     l1106 5DDA                     l1060 5C1C  
                   l1044 5BB2                     l1070 5D32                     l1054 5BF0  
                   l1240 5F6E                     l1232 5F56                     l1224 5F3E  
                   l1216 5F26                     l1208 5F0E                     l1160 5E7E  
                   l1152 5E66                     l1144 5E4E                     l1136 5E36  
                   l1128 5E1E                     l1072 5D42                     l1048 5BC2  
                   l1250 5F8A                     l1242 5F72                     l1234 5F5A  
                   l1226 5F42                     l1218 5F2A                     l1170 5E9A  
                   l1162 5E82                     l1154 5E6A                     l1146 5E52  
                   l1138 5E3A                     l1090 5DAA                     l1082 5D6C  
                   l1068 5CF8                     l1076 5D50                     l1280 5FE8  
                   l1272 5FCE                     l1264 5FB6                     l1256 5F9E  
                   l1248 5F86                     l1192 5EDE                     l1184 5EC6  
                   l1176 5EAE                     l1168 5E96                     l1096 5DBE  
                   l1088 5DA6                     l1274 5FD2                     l1266 5FBA  
                   l1258 5FA2                     l1194 5EE2                     l1186 5ECA  
                   l1178 5EB2                     l1098 5DC2                     l1278 5FE0  
                   ?_one 0001                     _main 5B7E                     fsr2h 000FDA  
                   fsr1l 000FE1                     fsr2l 000FD9                     _zero 5B06  
                   start 0000            __CFG_IESO$OFF 000000            __CFG_MCLRE$ON 000000  
           ___param_bank 000010                    ??_one 0001             main@ledCount 003B  
          __CFG_PLLDIV$5 000000           __CFG_CCP2MX$ON 000000                    ?_main 0001  
                  ?_zero 0001                    _PORTA 000F80                    _PORTB 000F81  
                  _PORTC 000F82            __CFG_USBDIV$1 000000                    _TRISA 000F92  
                  _TRISB 000F93                    _TRISC 000F94            __CFG_PWRT$OFF 000000  
          __CFG_WRT0$OFF 000000            __CFG_WRT1$OFF 000000            __CFG_WRT2$OFF 000000  
         __CFG_EBTR0$OFF 000000           __CFG_FCMEN$OFF 000000           __CFG_EBTR1$OFF 000000  
         __CFG_EBTR2$OFF 000000            __CFG_WRTB$OFF 000000            __CFG_WRTC$OFF 000000  
          __CFG_WRTD$OFF 000000           __CFG_EBTRB$OFF 000000                    main@i 0039  
                  tablat 000FF5                    plusw1 000FE3                    plusw2 000FDB  
                  status 000FD8          __initialization 5B28             __end_of_main 6000  
           __end_of_zero 5B28                   ??_main 0001                   ??_zero 0001  
          __activetblptr 000000            main@ledColour 0007                   _ADCON1 000FC1  
         __CFG_XINST$OFF 000000           __CFG_STVREN$ON 000000                   tblptrh 000FF7  
                 tblptrl 000FF6                   tblptru 000FF8               __accesstop 0060  
__end_of__initialization 5B48          __CFG_PBADEN$OFF 000000            ___rparam_used 000001  
         __pcstackCOMRAM 0001             __pidataBANK0 5B4E          __CFG_VREGEN$OFF 000000  
                __Hparam 0000                  __Lparam 0000                  __pcinit 5B28  
                __ramtop 0800                  __ptext0 5B7E                  __ptext1 5B06  
                __ptext2 5AE4                _T1CONbits 000FCD           main@tempColour 003F  
           __size_of_one 0022     end_of_initialization 5B48                  postdec1 000FE5  
                postdec2 000FDD                  postinc0 000FEE                  postinc2 000FDE  
              _PORTAbits 000F80      start_initialization 5B28              __end_of_one 5B06  
            __pdataBANK0 0060         __CFG_LPT1OSC$OFF 000000         __CFG_WDTPS$32768 000000  
              main@F3971 0060                main@i_181 003D                main@i_186 0037  
              copy_data0 5B3C                 __Hrparam 0000                 __Lrparam 0000  
          __size_of_main 0482            __size_of_zero 0022    __CFG_CPUDIV$OSC1_PLL2 000000  
     __CFG_FOSC$HSPLL_HS 000000  
