

Microchip Technology PIC18 LITE Macro Assembler V1.35 build -356382666 
                                                                                               Fri Jan 15 15:17:05 2016

Microchip Technology Omniscient Code Generator v1.35 (Free mode) build 201507080246
     1                           	processor	18F2455
     2                           	fnconf	rparam,??,?,0
     3                           	opt	pw 120
     4                           	opt	lm
     5                           	psect	cinit,global,reloc=2,class=CODE,delta=1
     6                           	psect	cstackCOMRAM,global,class=COMRAM,space=1,delta=1
     7                           	psect	text0,global,reloc=2,class=CODE,delta=1
     8                           	psect	text1,global,reloc=2,class=CODE,delta=1
     9                           	psect	text2,global,reloc=2,class=CODE,delta=1
    10                           	psect	intsave_regs,global,class=BIGRAM,space=1,delta=1
    11                           	psect	rparam,global,class=COMRAM,space=1,delta=1
    12  0000                     _ADCON1	set	4033
    13  0000                     _PORTA	set	3968
    14  0000                     _PORTB	set	3969
    15  0000                     _PORTC	set	3970
    16  0000                     _T1CONbits	set	4045
    17  0000                     _TRISA	set	3986
    18  0000                     _TRISB	set	3987
    19  0000                     _TRISC	set	3988
    20                           
    21                           ; #config settings
    22  0000                     
    23                           	psect	cinit
    24  005E9A                     __pcinit:
    25                           	opt stack 0
    26  005E9A                     start_initialization:
    27                           	opt stack 0
    28  005E9A                     __initialization:
    29                           	opt stack 0
    30  005E9A                     end_of_initialization:
    31                           	opt stack 0
    32  005E9A                     __end_of__initialization:
    33                           	opt stack 0
    34  005E9A  0100               	movlb	0
    35  005E9C  EF5F  F02F         	goto	_main	;jump to C main() function
    36                           
    37                           	psect	cstackCOMRAM
    38  000001                     __pcstackCOMRAM:
    39                           	opt stack 0
    40  000001                     ?_update_leds:
    41                           	opt stack 0
    42  000001                     Delay10KTCYx@i:
    43                           	opt stack 0
    44  000001                     update_leds@leds:
    45                           	opt stack 0
    46                           
    47                           ; 4 bytes @ 0x0
    48  000001                     	ds	4
    49  000005                     update_leds@direction:
    50                           	opt stack 0
    51                           
    52                           ; 2 bytes @ 0x4
    53  000005                     	ds	2
    54  000007                     ??_update_leds:
    55                           
    56                           ; 0 bytes @ 0x6
    57  000007                     	ds	4
    58  00000B                     main@portb:
    59                           	opt stack 0
    60                           
    61                           ; 1 bytes @ 0xA
    62  00000B                     	ds	1
    63  00000C                     main@portc:
    64                           	opt stack 0
    65                           
    66                           ; 1 bytes @ 0xB
    67  00000C                     	ds	1
    68  00000D                     main@direction:
    69                           	opt stack 0
    70                           
    71                           ; 2 bytes @ 0xC
    72  00000D                     	ds	2
    73  00000F                     main@porta:
    74                           	opt stack 0
    75                           
    76                           ; 1 bytes @ 0xE
    77  00000F                     	ds	1
    78  000010                     main@leds:
    79                           	opt stack 0
    80                           
    81                           ; 4 bytes @ 0xF
    82  000010                     	ds	4
    83                           
    84 ;;
    85 ;;Main: autosize = 0, tempsize = 0, incstack = 0, save=0
    86 ;;
    87 ;; *************** function _main *****************
    88 ;; Defined at:
    89 ;;		line 36 in file "newmain.c"
    90 ;; Parameters:    Size  Location     Type
    91 ;;		None
    92 ;; Auto vars:     Size  Location     Type
    93 ;;  porta           1   14[COMRAM] unsigned char 
    94 ;;  portc           1   11[COMRAM] unsigned char 
    95 ;;  portb           1   10[COMRAM] unsigned char 
    96 ;;  leds            4   15[COMRAM] unsigned long 
    97 ;;  direction       2   12[COMRAM] unsigned int 
    98 ;; Return value:  Size  Location     Type
    99 ;;		None               void
   100 ;; Registers used:
   101 ;;		wreg, fsr2l, fsr2h, status,2, status,0, cstack
   102 ;; Tracked objects:
   103 ;;		On entry : 0/0
   104 ;;		On exit  : 0/0
   105 ;;		Unchanged: 0/0
   106 ;; Data sizes:     COMRAM   BANK0   BANK1   BANK2   BANK3   BANK4   BANK5   BANK6   BANK7
   107 ;;      Params:         0       0       0       0       0       0       0       0       0
   108 ;;      Locals:         9       0       0       0       0       0       0       0       0
   109 ;;      Temps:          0       0       0       0       0       0       0       0       0
   110 ;;      Totals:         9       0       0       0       0       0       0       0       0
   111 ;;Total ram usage:        9 bytes
   112 ;; Hardware stack levels required when called:    1
   113 ;; This function calls:
   114 ;;		_Delay10KTCYx
   115 ;;		_update_leds
   116 ;; This function is called by:
   117 ;;		Startup code after reset
   118 ;; This function uses a non-reentrant model
   119 ;;
   120                           
   121                           	psect	text0
   122  005EBE                     __ptext0:
   123                           	opt stack 0
   124  005EBE                     _main:
   125                           	opt stack 30
   126                           
   127                           ;newmain.c: 37: TRISA=0;
   128                           
   129                           ;incstack = 0
   130  005EBE  0E00               	movlw	0
   131  005EC0  6E92               	movwf	3986,c	;volatile
   132                           
   133                           ;newmain.c: 38: TRISB=0;
   134  005EC2  0E00               	movlw	0
   135  005EC4  6E93               	movwf	3987,c	;volatile
   136                           
   137                           ;newmain.c: 39: TRISC=0;
   138  005EC6  0E00               	movlw	0
   139  005EC8  6E94               	movwf	3988,c	;volatile
   140                           
   141                           ;newmain.c: 40: PORTA=0xff;
   142  005ECA  6880               	setf	3968,c	;volatile
   143                           
   144                           ;newmain.c: 41: PORTB=0xff;
   145  005ECC  6881               	setf	3969,c	;volatile
   146                           
   147                           ;newmain.c: 42: PORTC=0xff;
   148  005ECE  6882               	setf	3970,c	;volatile
   149                           
   150                           ;newmain.c: 44: ADCON1=0b00001111;
   151  005ED0  0E0F               	movlw	15
   152  005ED2  6EC1               	movwf	4033,c	;volatile
   153                           
   154                           ;newmain.c: 45: T1CONbits.TMR1CS = 0;
   155  005ED4  92CD               	bcf	4045,1,c	;volatile
   156                           
   157                           ;newmain.c: 46: T1CONbits.T1OSCEN = 0;
   158  005ED6  96CD               	bcf	4045,3,c	;volatile
   159                           
   160                           ;newmain.c: 66: unsigned int direction = 1;
   161  005ED8  0E00               	movlw	0
   162  005EDA  6E0E               	movwf	main@direction+1,c
   163  005EDC  0E01               	movlw	1
   164  005EDE  6E0D               	movwf	main@direction,c
   165                           
   166                           ;newmain.c: 67: unsigned long leds = 0b0000000000000011;
   167  005EE0  0E03               	movlw	3
   168  005EE2  6E10               	movwf	main@leds,c
   169  005EE4  0E00               	movlw	0
   170  005EE6  6E11               	movwf	main@leds+1,c
   171  005EE8  0E00               	movlw	0
   172  005EEA  6E12               	movwf	main@leds+2,c
   173  005EEC  0E00               	movlw	0
   174  005EEE  6E13               	movwf	main@leds+3,c
   175  005EF0                     l743:
   176                           
   177                           ;newmain.c: 70: leds = update_leds(leds, &direction);
   178  005EF0  C010  F001         	movff	main@leds,update_leds@leds
   179  005EF4  C011  F002         	movff	main@leds+1,update_leds@leds+1
   180  005EF8  C012  F003         	movff	main@leds+2,update_leds@leds+2
   181  005EFC  C013  F004         	movff	main@leds+3,update_leds@leds+3
   182  005F00  0E0D               	movlw	low main@direction
   183  005F02  6E05               	movwf	update_leds@direction,c
   184  005F04  0E00               	movlw	high main@direction
   185  005F06  6E06               	movwf	update_leds@direction+1,c
   186  005F08  ECA0  F02F         	call	_update_leds	;wreg free
   187  005F0C  C001  F010         	movff	?_update_leds,main@leds
   188  005F10  C002  F011         	movff	?_update_leds+1,main@leds+1
   189  005F14  C003  F012         	movff	?_update_leds+2,main@leds+2
   190  005F18  C004  F013         	movff	?_update_leds+3,main@leds+3
   191                           
   192                           ;newmain.c: 72: unsigned char portb = (leds >> 8) & 0xff;
   193  005F1C  C011  F00B         	movff	main@leds+1,main@portb
   194                           
   195                           ;newmain.c: 73: unsigned char porta = leds & 0xff;
   196  005F20  C010  F00F         	movff	main@leds,main@porta
   197                           
   198                           ;newmain.c: 74: unsigned char portc = (porta & 0b11100000) >> 5;
   199  005F24  380F               	swapf	main@porta,w,c
   200  005F26  42E8               	rrncf	wreg,f,c
   201  005F28  0B07               	andlw	7
   202  005F2A  0B07               	andlw	7
   203  005F2C  6E0C               	movwf	main@portc,c
   204                           
   205                           ;newmain.c: 76: PORTA = porta;
   206  005F2E  C00F  FF80         	movff	main@porta,3968	;volatile
   207                           
   208                           ;newmain.c: 77: PORTB = portb;
   209  005F32  C00B  FF81         	movff	main@portb,3969	;volatile
   210                           
   211                           ;newmain.c: 78: PORTC = portc;
   212  005F36  C00C  FF82         	movff	main@portc,3970	;volatile
   213                           
   214                           ;newmain.c: 80: Delay10KTCYx();
   215  005F3A  EC50  F02F         	call	_Delay10KTCYx	;wreg free
   216  005F3E  D7D8               	goto	l743
   217  005F40                     __end_of_main:
   218                           	opt stack 0
   219                           wreg	equ	0xFE8
   220                           
   221 ;; *************** function _update_leds *****************
   222 ;; Defined at:
   223 ;;		line 12 in file "newmain.c"
   224 ;; Parameters:    Size  Location     Type
   225 ;;  leds            4    0[COMRAM] unsigned long 
   226 ;;  direction       2    4[COMRAM] PTR unsigned int 
   227 ;;		 -> main@direction(2), 
   228 ;; Auto vars:     Size  Location     Type
   229 ;;		None
   230 ;; Return value:  Size  Location     Type
   231 ;;                  4    0[COMRAM] unsigned long 
   232 ;; Registers used:
   233 ;;		wreg, fsr2l, fsr2h, status,2, status,0
   234 ;; Tracked objects:
   235 ;;		On entry : 0/0
   236 ;;		On exit  : 0/0
   237 ;;		Unchanged: 0/0
   238 ;; Data sizes:     COMRAM   BANK0   BANK1   BANK2   BANK3   BANK4   BANK5   BANK6   BANK7
   239 ;;      Params:         6       0       0       0       0       0       0       0       0
   240 ;;      Locals:         0       0       0       0       0       0       0       0       0
   241 ;;      Temps:          4       0       0       0       0       0       0       0       0
   242 ;;      Totals:        10       0       0       0       0       0       0       0       0
   243 ;;Total ram usage:       10 bytes
   244 ;; Hardware stack levels used:    1
   245 ;; This function calls:
   246 ;;		Nothing
   247 ;; This function is called by:
   248 ;;		_main
   249 ;; This function uses a non-reentrant model
   250 ;;
   251                           
   252                           	psect	text1
   253  005F40                     __ptext1:
   254                           	opt stack 0
   255  005F40                     _update_leds:
   256                           	opt stack 30
   257                           
   258                           ;newmain.c: 13: if(leds <= 0b0000000000000011) {
   259                           
   260                           ;incstack = 0
   261  005F40  5004               	movf	update_leds@leds+3,w,c
   262  005F42  1003               	iorwf	update_leds@leds+2,w,c
   263  005F44  1002               	iorwf	update_leds@leds+1,w,c
   264  005F46  E115               	bnz	l715
   265  005F48  0E04               	movlw	4
   266  005F4A  5C01               	subwf	update_leds@leds,w,c
   267  005F4C  B0D8               	btfsc	status,0,c
   268  005F4E  D011               	goto	l715
   269                           
   270                           ;newmain.c: 14: leds = 0b0000000000000110;
   271  005F50  0E06               	movlw	6
   272  005F52  6E01               	movwf	update_leds@leds,c
   273  005F54  0E00               	movlw	0
   274  005F56  6E02               	movwf	update_leds@leds+1,c
   275  005F58  0E00               	movlw	0
   276  005F5A  6E03               	movwf	update_leds@leds+2,c
   277  005F5C  0E00               	movlw	0
   278  005F5E  6E04               	movwf	update_leds@leds+3,c
   279                           
   280                           ;newmain.c: 15: *direction = 1;
   281  005F60  C005  FFD9         	movff	update_leds@direction,fsr2l
   282  005F64  C006  FFDA         	movff	update_leds@direction+1,fsr2h
   283  005F68  0E01               	movlw	1
   284  005F6A  6EDE               	movwf	postinc2,c
   285  005F6C  0E00               	movlw	0
   286  005F6E  6EDD               	movwf	postdec2,c
   287                           
   288                           ;newmain.c: 16: } else if(leds >= 0b1100000000000000) {
   289  005F70  D017               	goto	l721
   290  005F72                     l715:
   291  005F72  5004               	movf	update_leds@leds+3,w,c
   292  005F74  1003               	iorwf	update_leds@leds+2,w,c
   293  005F76  E104               	bnz	u70
   294  005F78  0EC0               	movlw	192
   295  005F7A  5C02               	subwf	update_leds@leds+1,w,c
   296  005F7C  A0D8               	btfss	status,0,c
   297  005F7E  D010               	goto	l721
   298  005F80                     u70:
   299                           
   300                           ;newmain.c: 17: *direction = 0;
   301  005F80  C005  FFD9         	movff	update_leds@direction,fsr2l
   302  005F84  C006  FFDA         	movff	update_leds@direction+1,fsr2h
   303  005F88  0E00               	movlw	0
   304  005F8A  6EDE               	movwf	postinc2,c
   305  005F8C  0E00               	movlw	0
   306  005F8E  6EDD               	movwf	postdec2,c
   307                           
   308                           ;newmain.c: 18: leds = 0b0110000000000000;
   309  005F90  0E00               	movlw	0
   310  005F92  6E01               	movwf	update_leds@leds,c
   311  005F94  0E60               	movlw	96
   312  005F96  6E02               	movwf	update_leds@leds+1,c
   313  005F98  0E00               	movlw	0
   314  005F9A  6E03               	movwf	update_leds@leds+2,c
   315  005F9C  0E00               	movlw	0
   316  005F9E  6E04               	movwf	update_leds@leds+3,c
   317  005FA0                     l721:
   318                           
   319                           ;newmain.c: 19: }
   320                           ;newmain.c: 21: if(*direction == 0) {
   321  005FA0  C005  FFD9         	movff	update_leds@direction,fsr2l
   322  005FA4  C006  FFDA         	movff	update_leds@direction+1,fsr2h
   323  005FA8  50DE               	movf	postinc2,w,c
   324  005FAA  10DE               	iorwf	postinc2,w,c
   325  005FAC  A4D8               	btfss	status,2,c
   326  005FAE  D016               	goto	l725
   327                           
   328                           ;newmain.c: 22: leds = (leds >> 1);
   329  005FB0  C001  F007         	movff	update_leds@leds,??_update_leds
   330  005FB4  C002  F008         	movff	update_leds@leds+1,??_update_leds+1
   331  005FB8  C003  F009         	movff	update_leds@leds+2,??_update_leds+2
   332  005FBC  C004  F00A         	movff	update_leds@leds+3,??_update_leds+3
   333  005FC0  90D8               	bcf	status,0,c
   334  005FC2  320A               	rrcf	??_update_leds+3,f,c
   335  005FC4  3209               	rrcf	??_update_leds+2,f,c
   336  005FC6  3208               	rrcf	??_update_leds+1,f,c
   337  005FC8  3207               	rrcf	??_update_leds,f,c
   338  005FCA  C007  F001         	movff	??_update_leds,update_leds@leds
   339  005FCE  C008  F002         	movff	??_update_leds+1,update_leds@leds+1
   340  005FD2  C009  F003         	movff	??_update_leds+2,update_leds@leds+2
   341  005FD6  C00A  F004         	movff	??_update_leds+3,update_leds@leds+3
   342                           
   343                           ;newmain.c: 23: } else {
   344  005FDA  D009               	goto	l727
   345  005FDC                     l725:
   346                           
   347                           ;newmain.c: 24: leds = (leds << 1);
   348  005FDC  90D8               	bcf	status,0,c
   349  005FDE  3401               	rlcf	update_leds@leds,w,c
   350  005FE0  6E01               	movwf	update_leds@leds,c
   351  005FE2  3402               	rlcf	update_leds@leds+1,w,c
   352  005FE4  6E02               	movwf	update_leds@leds+1,c
   353  005FE6  3403               	rlcf	update_leds@leds+2,w,c
   354  005FE8  6E03               	movwf	update_leds@leds+2,c
   355  005FEA  3404               	rlcf	update_leds@leds+3,w,c
   356  005FEC  6E04               	movwf	update_leds@leds+3,c
   357  005FEE                     l727:
   358                           
   359                           ;newmain.c: 25: }
   360                           ;newmain.c: 27: return leds;
   361  005FEE  C001  F001         	movff	update_leds@leds,?_update_leds
   362  005FF2  C002  F002         	movff	update_leds@leds+1,?_update_leds+1
   363  005FF6  C003  F003         	movff	update_leds@leds+2,?_update_leds+2
   364  005FFA  C004  F004         	movff	update_leds@leds+3,?_update_leds+3
   365  005FFE  0012               	return	
   366  006000                     __end_of_update_leds:
   367                           	opt stack 0
   368                           wreg	equ	0xFE8
   369                           postinc2	equ	0xFDE
   370                           postdec2	equ	0xFDD
   371                           fsr2h	equ	0xFDA
   372                           fsr2l	equ	0xFD9
   373                           status	equ	0xFD8
   374                           
   375 ;; *************** function _Delay10KTCYx *****************
   376 ;; Defined at:
   377 ;;		line 30 in file "newmain.c"
   378 ;; Parameters:    Size  Location     Type
   379 ;;		None
   380 ;; Auto vars:     Size  Location     Type
   381 ;;  i               2    0[COMRAM] int 
   382 ;; Return value:  Size  Location     Type
   383 ;;		None               void
   384 ;; Registers used:
   385 ;;		wreg, status,2, status,0
   386 ;; Tracked objects:
   387 ;;		On entry : 0/0
   388 ;;		On exit  : 0/0
   389 ;;		Unchanged: 0/0
   390 ;; Data sizes:     COMRAM   BANK0   BANK1   BANK2   BANK3   BANK4   BANK5   BANK6   BANK7
   391 ;;      Params:         0       0       0       0       0       0       0       0       0
   392 ;;      Locals:         2       0       0       0       0       0       0       0       0
   393 ;;      Temps:          0       0       0       0       0       0       0       0       0
   394 ;;      Totals:         2       0       0       0       0       0       0       0       0
   395 ;;Total ram usage:        2 bytes
   396 ;; Hardware stack levels used:    1
   397 ;; This function calls:
   398 ;;		Nothing
   399 ;; This function is called by:
   400 ;;		_main
   401 ;; This function uses a non-reentrant model
   402 ;;
   403                           
   404                           	psect	text2
   405  005EA0                     __ptext2:
   406                           	opt stack 0
   407  005EA0                     _Delay10KTCYx:
   408                           	opt stack 30
   409                           
   410                           ;newmain.c: 31: for(int i = 0; i < 10000; i++) {
   411                           
   412                           ;incstack = 0
   413  005EA0  0E00               	movlw	0
   414  005EA2  6E02               	movwf	Delay10KTCYx@i+1,c
   415  005EA4  0E00               	movlw	0
   416  005EA6  6E01               	movwf	Delay10KTCYx@i,c
   417  005EA8                     l673:
   418  005EA8  BE02               	btfsc	Delay10KTCYx@i+1,7,c
   419  005EAA  D006               	goto	l677
   420  005EAC  0E10               	movlw	16
   421  005EAE  5C01               	subwf	Delay10KTCYx@i,w,c
   422  005EB0  0E27               	movlw	39
   423  005EB2  5802               	subwfb	Delay10KTCYx@i+1,w,c
   424  005EB4  B0D8               	btfsc	status,0,c
   425  005EB6  0012               	return	
   426  005EB8                     l677:
   427  005EB8  4A01               	infsnz	Delay10KTCYx@i,f,c
   428  005EBA  2A02               	incf	Delay10KTCYx@i+1,f,c
   429  005EBC  D7F5               	goto	l673
   430  005EBE                     __end_of_Delay10KTCYx:
   431                           	opt stack 0
   432  0000                     wreg	equ	0xFE8
   433                           postinc2	equ	0xFDE
   434                           postdec2	equ	0xFDD
   435                           fsr2h	equ	0xFDA
   436                           fsr2l	equ	0xFD9
   437                           status	equ	0xFD8
   438                           wreg	equ	0xFE8
   439                           postinc2	equ	0xFDE
   440                           postdec2	equ	0xFDD
   441                           fsr2h	equ	0xFDA
   442                           fsr2l	equ	0xFD9
   443                           status	equ	0xFD8
   444                           
   445                           	psect	rparam
   446  0000                     wreg	equ	0xFE8
   447                           postinc2	equ	0xFDE
   448                           postdec2	equ	0xFDD
   449                           fsr2h	equ	0xFDA
   450                           fsr2l	equ	0xFD9
   451                           status	equ	0xFD8


Data Sizes:
    Strings     0
    Constant    0
    Data        0
    BSS         0
    Persistent  0
    Stack       0

Auto Spaces:
    Space          Size  Autos    Used
    COMRAM           95     19      19
    BANK0           160      0       0
    BANK1           256      0       0
    BANK2           256      0       0
    BANK3           256      0       0
    BANK4           256      0       0
    BANK5           256      0       0
    BANK6           256      0       0
    BANK7           256      0       0

Pointer List with Targets:

    update_leds@direction	PTR unsigned int  size(2) Largest target is 2
		 -> main@direction(COMRAM[2]), 


Critical Paths under _main in COMRAM

    _main->_update_leds

Critical Paths under _main in BANK0

    None.

Critical Paths under _main in BANK1

    None.

Critical Paths under _main in BANK2

    None.

Critical Paths under _main in BANK3

    None.

Critical Paths under _main in BANK4

    None.

Critical Paths under _main in BANK5

    None.

Critical Paths under _main in BANK6

    None.

Critical Paths under _main in BANK7

    None.

Call Graph Tables:

 ---------------------------------------------------------------------------------
 (Depth) Function   	        Calls       Base Space   Used Autos Params    Refs
 ---------------------------------------------------------------------------------
 (0) _main                                                 9     9      0     525
                                             10 COMRAM     9     9      0
                       _Delay10KTCYx
                        _update_leds
 ---------------------------------------------------------------------------------
 (1) _update_leds                                         10     4      6     308
                                              0 COMRAM    10     4      6
 ---------------------------------------------------------------------------------
 (1) _Delay10KTCYx                                         2     2      0      30
                                              0 COMRAM     2     2      0
 ---------------------------------------------------------------------------------
 Estimated maximum stack depth 1
 ---------------------------------------------------------------------------------

 Call Graph Graphs:

 _main (ROOT)
   _Delay10KTCYx
   _update_leds

 Address spaces:
Name               Size   Autos  Total    Cost      Usage
BITCOMRAM           5F      0       0       0        0.0%
EEDATA             100      0       0       0        0.0%
NULL                 0      0       0       0        0.0%
CODE                 0      0       0       0        0.0%
COMRAM              5F     13      13       1       20.0%
STACK                0      0       0       2        0.0%
DATA                 0      0       0       3        0.0%
BITBANK0            A0      0       0       4        0.0%
BANK0               A0      0       0       5        0.0%
BITBANK1           100      0       0       6        0.0%
BANK1              100      0       0       7        0.0%
BITBANK2           100      0       0       8        0.0%
BANK2              100      0       0       9        0.0%
BITBANK3           100      0       0      10        0.0%
BANK3              100      0       0      11        0.0%
BITBANK4           100      0       0      12        0.0%
BANK4              100      0       0      13        0.0%
BITBANK5           100      0       0      14        0.0%
BANK5              100      0       0      15        0.0%
BITBANK6           100      0       0      16        0.0%
BANK6              100      0       0      17        0.0%
BITBANK7           100      0       0      18        0.0%
BANK7              100      0       0      19        0.0%
ABS                  0      0       0      20        0.0%
BIGRAM             7FF      0       0      21        0.0%
BITSFR               0      0       0      40        0.0%
SFR                  0      0       0      40        0.0%


Microchip Technology PIC18 Macro Assembler V1.35 build -356382666 
Symbol Table                                                                                   Fri Jan 15 15:17:05 2016

            _update_leds 5F40                       u70 5F80              __CFG_BOR$ON 000000  
            __CFG_BORV$3 000000             __CFG_CP0$OFF 000000             __CFG_CP1$OFF 000000  
           __CFG_CP2$OFF 000000                      l721 5FA0                      l715 5F72  
                    l725 5FDC                      l727 5FEE                      l743 5EF0  
                    l673 5EA8                      l677 5EB8             __CFG_CPB$OFF 000000  
           __CFG_CPD$OFF 000000                      wreg 000FE8             __CFG_FOSC$HS 000000  
           __CFG_LVP$OFF 000000             __CFG_WDT$OFF 000000                     _main 5EBE  
                   fsr2h 000FDA                     fsr2l 000FD9                     start 0000  
          __CFG_IESO$OFF 000000            __CFG_MCLRE$ON 000000             ___param_bank 000010  
          __CFG_PLLDIV$1 000000           __CFG_CCP2MX$ON 000000                    ?_main 0001  
                  _PORTA 000F80                    _PORTB 000F81                    _PORTC 000F82  
          __CFG_USBDIV$1 000000                    _TRISA 000F92                    _TRISB 000F93  
                  _TRISC 000F94    __size_of_Delay10KTCYx 001E            __CFG_PWRT$OFF 000000  
          __CFG_WRT0$OFF 000000            __CFG_WRT1$OFF 000000            __CFG_WRT2$OFF 000000  
         __CFG_EBTR0$OFF 000000           __CFG_FCMEN$OFF 000000           __CFG_EBTR1$OFF 000000  
         __CFG_EBTR2$OFF 000000            __CFG_WRTB$OFF 000000            __CFG_WRTC$OFF 000000  
          __CFG_WRTD$OFF 000000           __CFG_EBTRB$OFF 000000                    status 000FD8  
        __initialization 5E9A             __end_of_main 5F40          update_leds@leds 0001  
           _Delay10KTCYx 5EA0                   ??_main 000B            __activetblptr 000000  
          main@direction 000D                   _ADCON1 000FC1           __CFG_XINST$OFF 000000  
         __CFG_STVREN$ON 000000               __accesstop 0060  __end_of__initialization 5E9A  
        __CFG_PBADEN$OFF 000000            ___rparam_used 000001             ?_update_leds 0001  
         __pcstackCOMRAM 0001          __CFG_VREGEN$OFF 000000                  __Hparam 0000  
                __Lparam 0000                  __pcinit 5E9A                  __ramtop 0800  
                __ptext0 5EBE                  __ptext1 5F40                  __ptext2 5EA0  
              _T1CONbits 000FCD     end_of_initialization 5E9A                  postdec2 000FDD  
                postinc2 000FDE     __size_of_update_leds 00C0      start_initialization 5E9A  
   update_leds@direction 0005         __CFG_LPT1OSC$OFF 000000            ?_Delay10KTCYx 0001  
       __CFG_WDTPS$32768 000000           ??_Delay10KTCYx 0001                main@porta 000F  
              main@portb 000B                main@portc 000C                 __Hrparam 0000  
          ??_update_leds 0007                 __Lrparam 0000            Delay10KTCYx@i 0001  
          __size_of_main 0082                 main@leds 0010      __end_of_update_leds 6000  
  __CFG_CPUDIV$OSC1_PLL2 000000     __end_of_Delay10KTCYx 5EBE  
